target datalayout = "e-m:e-p270:32:32-p271:32:32-p272:64:64-i64:64-i128:128-f80:128-n8:16:32:64-S128"
target triple = "x86_64-pc-linux-gnu"

%"class.std::__cxx11::basic_string" = type { %"struct.std::__cxx11::basic_string<char>::_Alloc_hider", i64, %union.anon }
%"struct.std::__cxx11::basic_string<char>::_Alloc_hider" = type { ptr }
%union.anon = type { i64, [8 x i8] }
%struct.CvUIBase = type { i32 }
%struct.CvTrackbar = type { %struct.CvUIBase, ptr, %"class.std::__cxx11::basic_string", ptr, ptr, i32, i32, i32, ptr, ptr, ptr, ptr }

; Function Attrs: alwaysinline mustprogress nounwind uwtable
define internal noundef i32 @_ZL14_mm_cvtsd_si32Dv2_d(<2 x double> noundef %0) #15 {
  %2 = alloca <2 x double>, align 16
  store <2 x double> %0, ptr %2, align 16, !tbaa !99
  %3 = load <2 x double>, ptr %2, align 16, !tbaa !99
  %4 = call i32 @llvm.x86.sse2.cvtsd2si(<2 x double> %3)
  ret i32 %4
}

; Function Attrs: alwaysinline mustprogress nounwind uwtable
define internal noundef <2 x double> @_ZL10_mm_set_sdd(double noundef %0) #15 {
  %2 = alloca double, align 8
  %3 = alloca <2 x double>, align 16
  store double %0, ptr %2, align 8, !tbaa !101
  %4 = load double, ptr %2, align 8, !tbaa !101
  %5 = insertelement <2 x double> poison, double %4, i32 0
  %6 = insertelement <2 x double> %5, double 0.000000e+00, i32 1
  store <2 x double> %6, ptr %3, align 16, !tbaa !99
  %7 = load <2 x double>, ptr %3, align 16, !tbaa !99
  ret <2 x double> %7
}

; Function Attrs: inlinehint mustprogress uwtable
define internal noundef i32 @_ZL7cvRoundd(double noundef %0) #14 {
  %2 = alloca double, align 8
  %3 = alloca <2 x double>, align 16
  store double %0, ptr %2, align 8, !tbaa !101
  call void @llvm.lifetime.start.p0(i64 16, ptr %3) #3
  %4 = load double, ptr %2, align 8, !tbaa !101
  %5 = call noundef <2 x double> @_ZL10_mm_set_sdd(double noundef %4)
  store <2 x double> %5, ptr %3, align 16, !tbaa !99
  %6 = load <2 x double>, ptr %3, align 16, !tbaa !99
  %7 = call noundef i32 @_ZL14_mm_cvtsd_si32Dv2_d(<2 x double> noundef %6)
  call void @llvm.lifetime.end.p0(i64 16, ptr %3) #3
  ret i32 %7
}

; Function Attrs: mustprogress uwtable
define internal void @_ZL13icvOnTrackbarP10_GtkWidgetPv(ptr noundef %0, ptr noundef %1) #4 {
  %3 = alloca ptr, align 8
  %4 = alloca ptr, align 8
  %5 = alloca i32, align 4
  %6 = alloca ptr, align 8
  store ptr %0, ptr %3, align 8, !tbaa !158
  store ptr %1, ptr %4, align 8, !tbaa !31
  call void @llvm.lifetime.start.p0(i64 4, ptr %5) #3
  %7 = load ptr, ptr %3, align 8, !tbaa !158
  %8 = call i64 @gtk_range_get_type() #28
  %9 = call ptr @g_type_check_instance_cast(ptr noundef %7, i64 noundef %8)
  %10 = call double @gtk_range_get_value(ptr noundef %9)
  %11 = call noundef i32 @_ZL7cvRoundd(double noundef %10)
  store i32 %11, ptr %5, align 4, !tbaa !3
  call void @llvm.lifetime.start.p0(i64 8, ptr %6) #3
  %12 = load ptr, ptr %4, align 8, !tbaa !31
  store ptr %12, ptr %6, align 8, !tbaa !154
  %13 = load ptr, ptr %6, align 8, !tbaa !154
  %14 = icmp ne ptr %13, null
  br i1 %14, label %15, label %77

15:                                               ; preds = %2
  %16 = load ptr, ptr %6, align 8, !tbaa !154
  %17 = getelementptr inbounds nuw %struct.CvUIBase, ptr %16, i32 0, i32 0
  %18 = load i32, ptr %17, align 8, !tbaa !243
  %19 = icmp eq i32 %18, 4325443
  br i1 %19, label %20, label %77

20:                                               ; preds = %15
  %21 = load ptr, ptr %6, align 8, !tbaa !154
  %22 = getelementptr inbounds nuw %struct.CvTrackbar, ptr %21, i32 0, i32 1
  %23 = load ptr, ptr %22, align 8, !tbaa !159
  %24 = load ptr, ptr %3, align 8, !tbaa !158
  %25 = icmp eq ptr %23, %24
  br i1 %25, label %26, label %77

26:                                               ; preds = %20
  %27 = load i32, ptr %5, align 4, !tbaa !3
  %28 = load ptr, ptr %6, align 8, !tbaa !154
  %29 = getelementptr inbounds nuw %struct.CvTrackbar, ptr %28, i32 0, i32 5
  store i32 %27, ptr %29, align 8, !tbaa !160
  %30 = load ptr, ptr %6, align 8, !tbaa !154
  %31 = getelementptr inbounds nuw %struct.CvTrackbar, ptr %30, i32 0, i32 10
  %32 = load ptr, ptr %31, align 8, !tbaa !390
  %33 = icmp ne ptr %32, null
  br i1 %33, label %34, label %42

34:                                               ; preds = %26
  %35 = load ptr, ptr %6, align 8, !tbaa !154
  %36 = getelementptr inbounds nuw %struct.CvTrackbar, ptr %35, i32 0, i32 10
  %37 = load ptr, ptr %36, align 8, !tbaa !390
  %38 = load i32, ptr %5, align 4, !tbaa !3
  %39 = load ptr, ptr %6, align 8, !tbaa !154
  %40 = getelementptr inbounds nuw %struct.CvTrackbar, ptr %39, i32 0, i32 11
  %41 = load ptr, ptr %40, align 8, !tbaa !165
  call void %37(i32 noundef %38, ptr noundef %41)
  br label %42

42:                                               ; preds = %34, %26
  %43 = load ptr, ptr %6, align 8, !tbaa !154
  %44 = getelementptr inbounds nuw %struct.CvTrackbar, ptr %43, i32 0, i32 4
  %45 = load ptr, ptr %44, align 8, !tbaa !161
  %46 = icmp ne ptr %45, null
  br i1 %46, label %47, label %52

47:                                               ; preds = %42
  %48 = load i32, ptr %5, align 4, !tbaa !3
  %49 = load ptr, ptr %6, align 8, !tbaa !154
  %50 = getelementptr inbounds nuw %struct.CvTrackbar, ptr %49, i32 0, i32 4
  %51 = load ptr, ptr %50, align 8, !tbaa !161
  store i32 %48, ptr %51, align 4, !tbaa !3
  br label %52

52:                                               ; preds = %47, %42
  %53 = load ptr, ptr %6, align 8, !tbaa !154
  %54 = getelementptr inbounds nuw %struct.CvTrackbar, ptr %53, i32 0, i32 9
  %55 = load ptr, ptr %54, align 8, !tbaa !164
  %56 = icmp ne ptr %55, null
  br i1 %56, label %57, label %65

57:                                               ; preds = %52
  %58 = load ptr, ptr %6, align 8, !tbaa !154
  %59 = getelementptr inbounds nuw %struct.CvTrackbar, ptr %58, i32 0, i32 9
  %60 = load ptr, ptr %59, align 8, !tbaa !164
  %61 = load i32, ptr %5, align 4, !tbaa !3
  %62 = load ptr, ptr %6, align 8, !tbaa !154
  %63 = getelementptr inbounds nuw %struct.CvTrackbar, ptr %62, i32 0, i32 11
  %64 = load ptr, ptr %63, align 8, !tbaa !165
  call void %60(i32 noundef %61, ptr noundef %64)
  br label %76

65:                                               ; preds = %52
  %66 = load ptr, ptr %6, align 8, !tbaa !154
  %67 = getelementptr inbounds nuw %struct.CvTrackbar, ptr %66, i32 0, i32 8
  %68 = load ptr, ptr %67, align 8, !tbaa !163
  %69 = icmp ne ptr %68, null
  br i1 %69, label %70, label %75

70:                                               ; preds = %65
  %71 = load ptr, ptr %6, align 8, !tbaa !154
  %72 = getelementptr inbounds nuw %struct.CvTrackbar, ptr %71, i32 0, i32 8
  %73 = load ptr, ptr %72, align 8, !tbaa !163
  %74 = load i32, ptr %5, align 4, !tbaa !3
  call void %73(i32 noundef %74)
  br label %75

75:                                               ; preds = %70, %65
  br label %76

76:                                               ; preds = %75, %57
  br label %77

77:                                               ; preds = %76, %20, %15, %2
  call void @llvm.lifetime.end.p0(i64 8, ptr %6) #3
  call void @llvm.lifetime.end.p0(i64 4, ptr %5) #3
  ret void
}