; Function Attrs: mustprogress uwtable
define internal void @_ZL13icvOnTrackbarP10_GtkWidgetPv(ptr noundef %0, ptr noundef %1) #15 {
  %3 = tail call i64 @gtk_range_get_type() #30
  %4 = tail call ptr @g_type_check_instance_cast(ptr noundef %0, i64 noundef %3)
  %5 = tail call double @gtk_range_get_value(ptr noundef %4)
  %6 = insertelement <2 x double> poison, double %5, i64 0
  %7 = tail call noundef i32 @llvm.x86.sse2.cvtsd2si(<2 x double> %6)
  %.not = icmp eq ptr %1, null
  br i1 %.not, label %36, label %8

8:                                                ; preds = %2
  %9 = load i32, ptr %1, align 8, !tbaa !217
  %10 = icmp eq i32 %9, 4325443
  br i1 %10, label %11, label %36

11:                                               ; preds = %8
  %12 = getelementptr inbounds nuw i8, ptr %1, i64 8
  %13 = load ptr, ptr %12, align 8, !tbaa !146
  %14 = icmp eq ptr %13, %0
  br i1 %14, label %15, label %36

15:                                               ; preds = %11
  %16 = getelementptr inbounds nuw i8, ptr %1, i64 64
  store i32 %7, ptr %16, align 8, !tbaa !147
  %17 = getelementptr inbounds nuw i8, ptr %1, i64 96
  %18 = load ptr, ptr %17, align 8, !tbaa !272
  %.not25 = icmp eq ptr %18, null
  br i1 %.not25, label %22, label %19

19:                                               ; preds = %15
  %20 = getelementptr inbounds nuw i8, ptr %1, i64 104
  %21 = load ptr, ptr %20, align 8, !tbaa !152
  tail call void %18(i32 noundef %7, ptr noundef %21)
  br label %22

22:                                               ; preds = %19, %15
  %23 = getelementptr inbounds nuw i8, ptr %1, i64 56
  %24 = load ptr, ptr %23, align 8, !tbaa !148
  %.not26 = icmp eq ptr %24, null
  br i1 %.not26, label %26, label %25

25:                                               ; preds = %22
  store i32 %7, ptr %24, align 4, !tbaa !36
  br label %26

26:                                               ; preds = %25, %22
  %27 = getelementptr inbounds nuw i8, ptr %1, i64 88
  %28 = load ptr, ptr %27, align 8, !tbaa !151
  %.not27 = icmp eq ptr %28, null
  br i1 %.not27, label %32, label %29

29:                                               ; preds = %26
  %30 = getelementptr inbounds nuw i8, ptr %1, i64 104
  %31 = load ptr, ptr %30, align 8, !tbaa !152
  tail call void %28(i32 noundef %7, ptr noundef %31)
  br label %36

32:                                               ; preds = %26
  %33 = getelementptr inbounds nuw i8, ptr %1, i64 80
  %34 = load ptr, ptr %33, align 8, !tbaa !150
  %.not28 = icmp eq ptr %34, null
  br i1 %.not28, label %36, label %35

35:                                               ; preds = %32
  tail call void %34(i32 noundef %7)
  br label %36

36:                                               ; preds = %29, %35, %32, %11, %8, %2
  ret void
}